target datalayout = "e-m:e-p270:32:32-p271:32:32-p272:64:64-i64:64-i128:128-f80:128-n8:16:32:64-S128"
target triple = "x86_64-pc-linux-gnu"

%class.JDK_Version = type { i32, i32, i32, i32, i32 }

@.str.9 = private unnamed_addr constant [3 x i8] c"%s\00", align 1
@.str.12 = private unnamed_addr constant [16 x i8] c"(uninitialized)\00", align 1
@.str.13 = private unnamed_addr constant [6 x i8] c"%d.%d\00", align 1
@.str.14 = private unnamed_addr constant [7 x i8] c".%d.%d\00", align 1
@.str.15 = private unnamed_addr constant [4 x i8] c".%d\00", align 1
@.str.16 = private unnamed_addr constant [4 x i8] c"+%d\00", align 1

; Function Attrs: mustprogress nounwind uwtable
define linkonce_odr hidden noundef zeroext i1 @_ZNK11JDK_Version8is_validEv(ptr noundef nonnull align 4 dereferenceable(20) %0) #1 comdat align 2 {
  %2 = alloca ptr, align 8
  store ptr %0, ptr %2, align 8
  %3 = load ptr, ptr %2, align 8
  %4 = getelementptr inbounds %class.JDK_Version, ptr %3, i32 0, i32 0
  %5 = load i32, ptr %4, align 4
  %6 = icmp ne i32 %5, 0
  ret i1 %6
}

; Function Attrs: mustprogress nounwind uwtable
define hidden void @_ZNK11JDK_Version9to_stringEPcm(ptr noundef nonnull align 4 dereferenceable(20) %0, ptr noundef %1, i64 noundef %2) #1 align 2 {
  %4 = alloca ptr, align 8
  %5 = alloca ptr, align 8
  %6 = alloca i64, align 8
  %7 = alloca i64, align 8
  %8 = alloca i32, align 4
  store ptr %0, ptr %4, align 8
  store ptr %1, ptr %5, align 8
  store i64 %2, ptr %6, align 8
  %9 = load ptr, ptr %4, align 8
  store i64 0, ptr %7, align 8
  %10 = call noundef zeroext i1 @_ZNK11JDK_Version8is_validEv(ptr noundef nonnull align 4 dereferenceable(20) %9)
  br i1 %10, label %15, label %11

11:                                               ; preds = %3
  %12 = load ptr, ptr %5, align 8
  %13 = load i64, ptr %6, align 8
  %14 = call i32 (ptr, i64, ptr, ...) @jio_snprintf(ptr noundef %12, i64 noundef %13, ptr noundef @.str.9, ptr noundef @.str.12)
  br label %104

15:                                               ; preds = %3
  %16 = load ptr, ptr %5, align 8
  %17 = load i64, ptr %7, align 8
  %18 = getelementptr inbounds i8, ptr %16, i64 %17
  %19 = load i64, ptr %6, align 8
  %20 = load i64, ptr %7, align 8
  %21 = sub i64 %19, %20
  %22 = getelementptr inbounds %class.JDK_Version, ptr %9, i32 0, i32 0
  %23 = load i32, ptr %22, align 4
  %24 = getelementptr inbounds %class.JDK_Version, ptr %9, i32 0, i32 1
  %25 = load i32, ptr %24, align 4
  %26 = call i32 (ptr, i64, ptr, ...) @jio_snprintf(ptr noundef %18, i64 noundef %21, ptr noundef @.str.13, i32 noundef %23, i32 noundef %25)
  store i32 %26, ptr %8, align 4
  %27 = load i32, ptr %8, align 4
  %28 = icmp eq i32 %27, -1
  br i1 %28, label %29, label %30

29:                                               ; preds = %15
  br label %104

30:                                               ; preds = %15
  %31 = load i32, ptr %8, align 4
  %32 = sext i32 %31 to i64
  %33 = load i64, ptr %7, align 8
  %34 = add i64 %33, %32
  store i64 %34, ptr %7, align 8
  %35 = getelementptr inbounds %class.JDK_Version, ptr %9, i32 0, i32 3
  %36 = load i32, ptr %35, align 4
  %37 = icmp sgt i32 %36, 0
  br i1 %37, label %38, label %58

38:                                               ; preds = %30
  %39 = load ptr, ptr %5, align 8
  %40 = load i64, ptr %7, align 8
  %41 = getelementptr inbounds i8, ptr %39, i64 %40
  %42 = load i64, ptr %6, align 8
  %43 = load i64, ptr %7, align 8
  %44 = sub i64 %42, %43
  %45 = getelementptr inbounds %class.JDK_Version, ptr %9, i32 0, i32 2
  %46 = load i32, ptr %45, align 4
  %47 = getelementptr inbounds %class.JDK_Version, ptr %9, i32 0, i32 3
  %48 = load i32, ptr %47, align 4
  %49 = call i32 (ptr, i64, ptr, ...) @jio_snprintf(ptr noundef %41, i64 noundef %44, ptr noundef @.str.14, i32 noundef %46, i32 noundef %48)
  store i32 %49, ptr %8, align 4
  %50 = load i32, ptr %8, align 4
  %51 = icmp eq i32 %50, -1
  br i1 %51, label %52, label %53

52:                                               ; preds = %38
  br label %104

53:                                               ; preds = %38
  %54 = load i32, ptr %8, align 4
  %55 = sext i32 %54 to i64
  %56 = load i64, ptr %7, align 8
  %57 = add i64 %56, %55
  store i64 %57, ptr %7, align 8
  br label %81

58:                                               ; preds = %30
  %59 = getelementptr inbounds %class.JDK_Version, ptr %9, i32 0, i32 2
  %60 = load i32, ptr %59, align 4
  %61 = icmp sgt i32 %60, 0
  br i1 %61, label %62, label %80

62:                                               ; preds = %58
  %63 = load ptr, ptr %5, align 8
  %64 = load i64, ptr %7, align 8
  %65 = getelementptr inbounds i8, ptr %63, i64 %64
  %66 = load i64, ptr %6, align 8
  %67 = load i64, ptr %7, align 8
  %68 = sub i64 %66, %67
  %69 = getelementptr inbounds %class.JDK_Version, ptr %9, i32 0, i32 2
  %70 = load i32, ptr %69, align 4
  %71 = call i32 (ptr, i64, ptr, ...) @jio_snprintf(ptr noundef %65, i64 noundef %68, ptr noundef @.str.15, i32 noundef %70)
  store i32 %71, ptr %8, align 4
  %72 = load i32, ptr %8, align 4
  %73 = icmp eq i32 %72, -1
  br i1 %73, label %74, label %75

74:                                               ; preds = %62
  br label %104

75:                                               ; preds = %62
  %76 = load i32, ptr %8, align 4
  %77 = sext i32 %76 to i64
  %78 = load i64, ptr %7, align 8
  %79 = add i64 %78, %77
  store i64 %79, ptr %7, align 8
  br label %80

80:                                               ; preds = %75, %58
  br label %81

81:                                               ; preds = %80, %53
  %82 = getelementptr inbounds %class.JDK_Version, ptr %9, i32 0, i32 4
  %83 = load i32, ptr %82, align 4
  %84 = icmp sgt i32 %83, 0
  br i1 %84, label %85, label %103

85:                                               ; preds = %81
  %86 = load ptr, ptr %5, align 8
  %87 = load i64, ptr %7, align 8
  %88 = getelementptr inbounds i8, ptr %86, i64 %87
  %89 = load i64, ptr %6, align 8
  %90 = load i64, ptr %7, align 8
  %91 = sub i64 %89, %90
  %92 = getelementptr inbounds %class.JDK_Version, ptr %9, i32 0, i32 4
  %93 = load i32, ptr %92, align 4
  %94 = call i32 (ptr, i64, ptr, ...) @jio_snprintf(ptr noundef %88, i64 noundef %91, ptr noundef @.str.16, i32 noundef %93)
  store i32 %94, ptr %8, align 4
  %95 = load i32, ptr %8, align 4
  %96 = icmp eq i32 %95, -1
  br i1 %96, label %97, label %98

97:                                               ; preds = %85
  br label %104

98:                                               ; preds = %85
  %99 = load i32, ptr %8, align 4
  %100 = sext i32 %99 to i64
  %101 = load i64, ptr %7, align 8
  %102 = add i64 %101, %100
  store i64 %102, ptr %7, align 8
  br label %103

103:                                              ; preds = %98, %81
  br label %104

104:                                              ; preds = %103, %97, %74, %52, %29, %11
  ret void
}