; Function Attrs: mustprogress nounwind uwtable
define hidden void @_ZNK11JDK_Version9to_stringEPcm(ptr nocapture noundef nonnull readonly align 4 dereferenceable(20) %0, ptr noundef %1, i64 noundef %2) local_unnamed_addr #0 align 2 {
  %4 = load i32, ptr %0, align 4
  %.not = icmp eq i32 %4, 0
  br i1 %.not, label %5, label %7

5:                                                ; preds = %3
  %6 = tail call i32 (ptr, i64, ptr, ...) @jio_snprintf(ptr noundef %1, i64 noundef %2, ptr noundef nonnull @.str.9, ptr noundef nonnull @.str.12) #17
  br label %47

7:                                                ; preds = %3
  %8 = getelementptr inbounds i8, ptr %0, i64 4
  %9 = load i32, ptr %8, align 4
  %10 = tail call i32 (ptr, i64, ptr, ...) @jio_snprintf(ptr noundef %1, i64 noundef %2, ptr noundef nonnull @.str.13, i32 noundef %4, i32 noundef %9) #17
  %11 = icmp eq i32 %10, -1
  br i1 %11, label %47, label %12

12:                                               ; preds = %7
  %13 = sext i32 %10 to i64
  %14 = getelementptr inbounds i8, ptr %0, i64 12
  %15 = load i32, ptr %14, align 4
  %16 = icmp sgt i32 %15, 0
  br i1 %16, label %17, label %27

17:                                               ; preds = %12
  %18 = getelementptr inbounds i8, ptr %1, i64 %13
  %19 = sub i64 %2, %13
  %20 = getelementptr inbounds i8, ptr %0, i64 8
  %21 = load i32, ptr %20, align 4
  %22 = tail call i32 (ptr, i64, ptr, ...) @jio_snprintf(ptr noundef %18, i64 noundef %19, ptr noundef nonnull @.str.14, i32 noundef %21, i32 noundef %15) #17
  %23 = icmp eq i32 %22, -1
  br i1 %23, label %47, label %24

24:                                               ; preds = %17
  %25 = sext i32 %22 to i64
  %26 = add nsw i64 %25, %13
  br label %39

27:                                               ; preds = %12
  %28 = getelementptr inbounds i8, ptr %0, i64 8
  %29 = load i32, ptr %28, align 4
  %30 = icmp sgt i32 %29, 0
  br i1 %30, label %31, label %39

31:                                               ; preds = %27
  %32 = getelementptr inbounds i8, ptr %1, i64 %13
  %33 = sub i64 %2, %13
  %34 = tail call i32 (ptr, i64, ptr, ...) @jio_snprintf(ptr noundef %32, i64 noundef %33, ptr noundef nonnull @.str.15, i32 noundef %29) #17
  %35 = icmp eq i32 %34, -1
  br i1 %35, label %47, label %36

36:                                               ; preds = %31
  %37 = sext i32 %34 to i64
  %38 = add nsw i64 %37, %13
  br label %39

39:                                               ; preds = %27, %36, %24
  %.0 = phi i64 [ %26, %24 ], [ %38, %36 ], [ %13, %27 ]
  %40 = getelementptr inbounds i8, ptr %0, i64 16
  %41 = load i32, ptr %40, align 4
  %42 = icmp sgt i32 %41, 0
  br i1 %42, label %43, label %47

43:                                               ; preds = %39
  %44 = getelementptr inbounds i8, ptr %1, i64 %.0
  %45 = sub i64 %2, %.0
  %46 = tail call i32 (ptr, i64, ptr, ...) @jio_snprintf(ptr noundef %44, i64 noundef %45, ptr noundef nonnull @.str.16, i32 noundef %41) #17
  br label %47

47:                                               ; preds = %43, %39, %31, %17, %7, %5
  ret void
}